target datalayout = "e-m:e-p270:32:32-p271:32:32-p272:64:64-i64:64-i128:128-f80:128-n8:16:32:64-S128"
target triple = "x86_64-pc-linux-gnu"

%"class.smt::justification.base" = type <{ ptr, i8 }>
%class.buffer = type { ptr, i32, i32, [128 x i8] }
%"struct.std::pair" = type { ptr, ptr }
%"class.smt::simple_justification" = type { %"class.smt::justification.base", i32, ptr }
%"class.smt::ext_simple_justification" = type { %"class.smt::simple_justification", i32, ptr }

; Function Attrs: mustprogress uwtable
define linkonce_odr hidden void @_Z13dealloc_svectIP3appEvPT_(ptr noundef %0) #6 comdat {
  %2 = alloca ptr, align 8
  store ptr %0, ptr %2, align 8, !tbaa !637
  %3 = load ptr, ptr %2, align 8, !tbaa !637
  %4 = icmp eq ptr %3, null
  br i1 %4, label %5, label %6

5:                                                ; preds = %1
  br label %8

6:                                                ; preds = %1
  %7 = load ptr, ptr %2, align 8, !tbaa !637
  call void @_ZN6memory10deallocateEPv(ptr noundef %7)
  br label %8

8:                                                ; preds = %6, %5
  ret void
}

; Function Attrs: mustprogress uwtable
define linkonce_odr hidden void @_ZN6bufferIP3appLb0ELj16EE11free_memoryEv(ptr noundef nonnull align 8 dereferenceable(144) %0) #6 comdat align 2 {
  %2 = alloca ptr, align 8
  store ptr %0, ptr %2, align 8, !tbaa !635
  %3 = load ptr, ptr %2, align 8
  %4 = getelementptr inbounds nuw %class.buffer, ptr %3, i32 0, i32 0
  %5 = load ptr, ptr %4, align 8, !tbaa !640
  %6 = getelementptr inbounds nuw %class.buffer, ptr %3, i32 0, i32 3
  %7 = getelementptr inbounds [128 x i8], ptr %6, i64 0, i64 0
  %8 = icmp ne ptr %5, %7
  br i1 %8, label %9, label %12

9:                                                ; preds = %1
  %10 = getelementptr inbounds nuw %class.buffer, ptr %3, i32 0, i32 0
  %11 = load ptr, ptr %10, align 8, !tbaa !640
  call void @_Z13dealloc_svectIP3appEvPT_(ptr noundef %11)
  br label %12

12:                                               ; preds = %9, %1
  ret void
}

; Function Attrs: mustprogress uwtable
define linkonce_odr hidden void @_ZN6bufferIP3appLb0ELj16EE6expandEv(ptr noundef nonnull align 8 dereferenceable(144) %0) #6 comdat align 2 {
  %2 = alloca ptr, align 8
  %3 = alloca i32, align 4
  %4 = alloca ptr, align 8
  %5 = alloca i32, align 4
  store ptr %0, ptr %2, align 8, !tbaa !635
  %6 = load ptr, ptr %2, align 8
  call void @llvm.lifetime.start.p0(i64 4, ptr %3) #3
  %7 = getelementptr inbounds nuw %class.buffer, ptr %6, i32 0, i32 2
  %8 = load i32, ptr %7, align 4, !tbaa !639
  %9 = shl i32 %8, 1
  store i32 %9, ptr %3, align 4, !tbaa !8
  call void @llvm.lifetime.start.p0(i64 8, ptr %4) #3
  %10 = load i32, ptr %3, align 4, !tbaa !8
  %11 = zext i32 %10 to i64
  %12 = mul i64 8, %11
  %13 = call noalias noundef ptr @_ZN6memory8allocateEm(i64 noundef %12)
  store ptr %13, ptr %4, align 8, !tbaa !637
  call void @llvm.lifetime.start.p0(i64 4, ptr %5) #3
  store i32 0, ptr %5, align 4, !tbaa !8
  br label %14

14:                                               ; preds = %31, %1
  %15 = load i32, ptr %5, align 4, !tbaa !8
  %16 = getelementptr inbounds nuw %class.buffer, ptr %6, i32 0, i32 1
  %17 = load i32, ptr %16, align 8, !tbaa !638
  %18 = icmp ult i32 %15, %17
  br i1 %18, label %20, label %19

19:                                               ; preds = %14
  call void @llvm.lifetime.end.p0(i64 4, ptr %5) #3
  br label %34

20:                                               ; preds = %14
  %21 = load ptr, ptr %4, align 8, !tbaa !637
  %22 = load i32, ptr %5, align 4, !tbaa !8
  %23 = zext i32 %22 to i64
  %24 = getelementptr inbounds nuw ptr, ptr %21, i64 %23
  %25 = getelementptr inbounds nuw %class.buffer, ptr %6, i32 0, i32 0
  %26 = load ptr, ptr %25, align 8, !tbaa !640
  %27 = load i32, ptr %5, align 4, !tbaa !8
  %28 = zext i32 %27 to i64
  %29 = getelementptr inbounds nuw ptr, ptr %26, i64 %28
  %30 = load ptr, ptr %29, align 8, !tbaa !32
  store ptr %30, ptr %24, align 8, !tbaa !32
  br label %31

31:                                               ; preds = %20
  %32 = load i32, ptr %5, align 4, !tbaa !8
  %33 = add i32 %32, 1
  store i32 %33, ptr %5, align 4, !tbaa !8
  br label %14, !llvm.loop !911

34:                                               ; preds = %19
  call void @_ZN6bufferIP3appLb0ELj16EE11free_memoryEv(ptr noundef nonnull align 8 dereferenceable(144) %6)
  %35 = load ptr, ptr %4, align 8, !tbaa !637
  %36 = getelementptr inbounds nuw %class.buffer, ptr %6, i32 0, i32 0
  store ptr %35, ptr %36, align 8, !tbaa !640
  %37 = load i32, ptr %3, align 4, !tbaa !8
  %38 = getelementptr inbounds nuw %class.buffer, ptr %6, i32 0, i32 2
  store i32 %37, ptr %38, align 4, !tbaa !639
  call void @llvm.lifetime.end.p0(i64 8, ptr %4) #3
  call void @llvm.lifetime.end.p0(i64 4, ptr %3) #3
  ret void
}

; Function Attrs: mustprogress uwtable
define linkonce_odr hidden void @_ZN6bufferIP3appLb0ELj16EE9push_backERKS1_(ptr noundef nonnull align 8 dereferenceable(144) %0, ptr noundef nonnull align 8 dereferenceable(8) %1) #6 comdat align 2 {
  %3 = alloca ptr, align 8
  %4 = alloca ptr, align 8
  store ptr %0, ptr %3, align 8, !tbaa !635
  store ptr %1, ptr %4, align 8, !tbaa !637
  %5 = load ptr, ptr %3, align 8
  %6 = getelementptr inbounds nuw %class.buffer, ptr %5, i32 0, i32 1
  %7 = load i32, ptr %6, align 8, !tbaa !638
  %8 = getelementptr inbounds nuw %class.buffer, ptr %5, i32 0, i32 2
  %9 = load i32, ptr %8, align 4, !tbaa !639
  %10 = icmp uge i32 %7, %9
  br i1 %10, label %11, label %12

11:                                               ; preds = %2
  call void @_ZN6bufferIP3appLb0ELj16EE6expandEv(ptr noundef nonnull align 8 dereferenceable(144) %5)
  br label %12

12:                                               ; preds = %11, %2
  %13 = getelementptr inbounds nuw %class.buffer, ptr %5, i32 0, i32 0
  %14 = load ptr, ptr %13, align 8, !tbaa !640
  %15 = getelementptr inbounds nuw %class.buffer, ptr %5, i32 0, i32 1
  %16 = load i32, ptr %15, align 8, !tbaa !638
  %17 = zext i32 %16 to i64
  %18 = getelementptr inbounds nuw ptr, ptr %14, i64 %17
  %19 = load ptr, ptr %4, align 8, !tbaa !637
  %20 = load ptr, ptr %19, align 8, !tbaa !32
  store ptr %20, ptr %18, align 8, !tbaa !32
  %21 = getelementptr inbounds nuw %class.buffer, ptr %5, i32 0, i32 1
  %22 = load i32, ptr %21, align 8, !tbaa !638
  %23 = add i32 %22, 1
  store i32 %23, ptr %21, align 8, !tbaa !638
  ret void
}

; Function Attrs: mustprogress uwtable
define hidden noundef zeroext i1 @_ZN3smt24ext_simple_justification16antecedent2proofERNS_19conflict_resolutionER10ptr_bufferI3appLj16EE(ptr noundef nonnull align 8 dereferenceable(40) %0, ptr noundef nonnull align 8 dereferenceable(356) %1, ptr noundef nonnull align 8 dereferenceable(144) %2) #6 align 2 {
  %4 = alloca ptr, align 8
  %5 = alloca ptr, align 8
  %6 = alloca ptr, align 8
  %7 = alloca i8, align 1
  %8 = alloca i32, align 4
  %9 = alloca ptr, align 8
  %10 = alloca ptr, align 8
  store ptr %0, ptr %4, align 8, !tbaa !721
  store ptr %1, ptr %5, align 8, !tbaa !533
  store ptr %2, ptr %6, align 8, !tbaa !592
  %11 = load ptr, ptr %4, align 8
  call void @llvm.lifetime.start.p0(i64 1, ptr %7) #3
  %12 = load ptr, ptr %5, align 8, !tbaa !533
  %13 = load ptr, ptr %6, align 8, !tbaa !592
  %14 = call noundef zeroext i1 @_ZN3smt20simple_justification16antecedent2proofERNS_19conflict_resolutionER10ptr_bufferI3appLj16EE(ptr noundef nonnull align 8 dereferenceable(24) %11, ptr noundef nonnull align 8 dereferenceable(356) %12, ptr noundef nonnull align 8 dereferenceable(144) %13)
  %15 = zext i1 %14 to i8
  store i8 %15, ptr %7, align 1, !tbaa !10
  call void @llvm.lifetime.start.p0(i64 4, ptr %8) #3
  store i32 0, ptr %8, align 4, !tbaa !8
  br label %16

16:                                               ; preds = %42, %3
  %17 = load i32, ptr %8, align 4, !tbaa !8
  %18 = getelementptr inbounds nuw %"class.smt::ext_simple_justification", ptr %11, i32 0, i32 1
  %19 = load i32, ptr %18, align 8, !tbaa !724
  %20 = icmp ult i32 %17, %19
  br i1 %20, label %22, label %21

21:                                               ; preds = %16
  call void @llvm.lifetime.end.p0(i64 4, ptr %8) #3
  br label %45

22:                                               ; preds = %16
  call void @llvm.lifetime.start.p0(i64 8, ptr %9) #3
  %23 = getelementptr inbounds nuw %"class.smt::ext_simple_justification", ptr %11, i32 0, i32 2
  %24 = load ptr, ptr %23, align 8, !tbaa !726
  %25 = load i32, ptr %8, align 4, !tbaa !8
  %26 = zext i32 %25 to i64
  %27 = getelementptr inbounds nuw %"struct.std::pair", ptr %24, i64 %26
  store ptr %27, ptr %9, align 8, !tbaa !723
  call void @llvm.lifetime.start.p0(i64 8, ptr %10) #3
  %28 = load ptr, ptr %5, align 8, !tbaa !533
  %29 = load ptr, ptr %9, align 8, !tbaa !723
  %30 = getelementptr inbounds nuw %"struct.std::pair", ptr %29, i32 0, i32 0
  %31 = load ptr, ptr %30, align 8, !tbaa !727
  %32 = load ptr, ptr %9, align 8, !tbaa !723
  %33 = getelementptr inbounds nuw %"struct.std::pair", ptr %32, i32 0, i32 1
  %34 = load ptr, ptr %33, align 8, !tbaa !729
  %35 = call noundef ptr @_ZN3smt19conflict_resolution9get_proofEPNS_5enodeES2_(ptr noundef nonnull align 8 dereferenceable(356) %28, ptr noundef %31, ptr noundef %34)
  store ptr %35, ptr %10, align 8, !tbaa !32
  %36 = load ptr, ptr %10, align 8, !tbaa !32
  %37 = icmp eq ptr %36, null
  br i1 %37, label %38, label %39

38:                                               ; preds = %22
  store i8 0, ptr %7, align 1, !tbaa !10
  br label %41

39:                                               ; preds = %22
  %40 = load ptr, ptr %6, align 8, !tbaa !592
  call void @_ZN6bufferIP3appLb0ELj16EE9push_backERKS1_(ptr noundef nonnull align 8 dereferenceable(144) %40, ptr noundef nonnull align 8 dereferenceable(8) %10)
  br label %41

41:                                               ; preds = %39, %38
  call void @llvm.lifetime.end.p0(i64 8, ptr %10) #3
  call void @llvm.lifetime.end.p0(i64 8, ptr %9) #3
  br label %42

42:                                               ; preds = %41
  %43 = load i32, ptr %8, align 4, !tbaa !8
  %44 = add i32 %43, 1
  store i32 %44, ptr %8, align 4, !tbaa !8
  br label %16, !llvm.loop !731

45:                                               ; preds = %21
  %46 = load i8, ptr %7, align 1, !tbaa !10, !range !12, !noundef !13
  %47 = trunc i8 %46 to i1
  call void @llvm.lifetime.end.p0(i64 1, ptr %7) #3
  ret i1 %47
}