; Function Attrs: mustprogress uwtable
define hidden noundef zeroext i1 @_ZN3smt24ext_simple_justification16antecedent2proofERNS_19conflict_resolutionER10ptr_bufferI3appLj16EE(ptr noundef nonnull readonly align 8 captures(none) dereferenceable(40) %0, ptr noundef nonnull align 8 dereferenceable(356) %1, ptr noundef nonnull align 8 captures(address) dereferenceable(144) %2) local_unnamed_addr #5 align 2 {
  %4 = tail call noundef zeroext i1 @_ZN3smt20simple_justification16antecedent2proofERNS_19conflict_resolutionER10ptr_bufferI3appLj16EE(ptr noundef nonnull align 8 dereferenceable(24) %0, ptr noundef nonnull align 8 dereferenceable(356) %1, ptr noundef nonnull align 8 dereferenceable(144) %2)
  %5 = getelementptr inbounds nuw i8, ptr %0, i64 24
  %6 = load i32, ptr %5, align 8, !tbaa !688
  %.not = icmp eq i32 %6, 0
  br i1 %.not, label %._crit_edge, label %.lr.ph

.lr.ph:                                           ; preds = %3
  %7 = getelementptr inbounds nuw i8, ptr %0, i64 32
  %8 = getelementptr inbounds nuw i8, ptr %2, i64 8
  %9 = getelementptr inbounds nuw i8, ptr %2, i64 12
  %10 = getelementptr inbounds nuw i8, ptr %2, i64 16
  br label %11

._crit_edge:                                      ; preds = %39, %3
  %.0.lcssa = phi i1 [ %4, %3 ], [ %.1, %39 ]
  ret i1 %.0.lcssa

11:                                               ; preds = %.lr.ph, %39
  %indvars.iv = phi i64 [ 0, %.lr.ph ], [ %indvars.iv.next, %39 ]
  %.012 = phi i1 [ %4, %.lr.ph ], [ %.1, %39 ]
  %12 = load ptr, ptr %7, align 8, !tbaa !690
  %13 = getelementptr inbounds nuw %"struct.std::pair", ptr %12, i64 %indvars.iv
  %14 = load ptr, ptr %13, align 8, !tbaa !111
  %15 = getelementptr inbounds nuw i8, ptr %13, i64 8
  %16 = load ptr, ptr %15, align 8, !tbaa !113
  %17 = tail call noundef ptr @_ZN3smt19conflict_resolution9get_proofEPNS_5enodeES2_(ptr noundef nonnull align 8 dereferenceable(356) %1, ptr noundef %14, ptr noundef %16)
  %18 = icmp eq ptr %17, null
  br i1 %18, label %39, label %19

19:                                               ; preds = %11
  %20 = load i32, ptr %8, align 8, !tbaa !119
  %21 = load i32, ptr %9, align 4, !tbaa !120
  %.not.i = icmp ult i32 %20, %21
  br i1 %.not.i, label %._crit_edge.i, label %22

._crit_edge.i:                                    ; preds = %19
  %.pre.i = load ptr, ptr %2, align 8, !tbaa !117
  br label %_ZN6bufferIP3appLb0ELj16EE9push_backERKS1_.exit

22:                                               ; preds = %19
  %23 = shl i32 %21, 1
  %24 = zext i32 %23 to i64
  %25 = shl nuw nsw i64 %24, 3
  %26 = tail call noalias noundef ptr @_ZN6memory8allocateEm(i64 noundef %25)
  %27 = load i32, ptr %8, align 8, !tbaa !119
  %.not.i.i = icmp eq i32 %27, 0
  %.pre.i.i = load ptr, ptr %2, align 8, !tbaa !117
  br i1 %.not.i.i, label %._crit_edge.i.i, label %.lr.ph.i.i

.lr.ph.i.i:                                       ; preds = %22
  %wide.trip.count.i.i = zext i32 %27 to i64
  br label %30

._crit_edge.i.i:                                  ; preds = %30, %22
  %.not.i.i.i = icmp eq ptr %.pre.i.i, %10
  %28 = icmp eq ptr %.pre.i.i, null
  %or.cond.i.i.i = or i1 %.not.i.i.i, %28
  br i1 %or.cond.i.i.i, label %_ZN6bufferIP3appLb0ELj16EE6expandEv.exit.i, label %29

29:                                               ; preds = %._crit_edge.i.i
  tail call void @_ZN6memory10deallocateEPv(ptr noundef nonnull %.pre.i.i)
  %.pre2.pre.i = load i32, ptr %8, align 8, !tbaa !119
  br label %_ZN6bufferIP3appLb0ELj16EE6expandEv.exit.i

30:                                               ; preds = %30, %.lr.ph.i.i
  %indvars.iv.i.i = phi i64 [ 0, %.lr.ph.i.i ], [ %indvars.iv.next.i.i, %30 ]
  %31 = getelementptr inbounds nuw ptr, ptr %26, i64 %indvars.iv.i.i
  %32 = getelementptr inbounds nuw ptr, ptr %.pre.i.i, i64 %indvars.iv.i.i
  %33 = load ptr, ptr %32, align 8, !tbaa !89
  store ptr %33, ptr %31, align 8, !tbaa !89
  %indvars.iv.next.i.i = add nuw nsw i64 %indvars.iv.i.i, 1
  %exitcond.not.i.i = icmp eq i64 %indvars.iv.next.i.i, %wide.trip.count.i.i
  br i1 %exitcond.not.i.i, label %._crit_edge.i.i, label %30, !llvm.loop !182

_ZN6bufferIP3appLb0ELj16EE6expandEv.exit.i:       ; preds = %29, %._crit_edge.i.i
  %.pre2.i = phi i32 [ %27, %._crit_edge.i.i ], [ %.pre2.pre.i, %29 ]
  store ptr %26, ptr %2, align 8, !tbaa !117
  store i32 %23, ptr %9, align 4, !tbaa !120
  br label %_ZN6bufferIP3appLb0ELj16EE9push_backERKS1_.exit

_ZN6bufferIP3appLb0ELj16EE9push_backERKS1_.exit:  ; preds = %._crit_edge.i, %_ZN6bufferIP3appLb0ELj16EE6expandEv.exit.i
  %34 = phi i32 [ %20, %._crit_edge.i ], [ %.pre2.i, %_ZN6bufferIP3appLb0ELj16EE6expandEv.exit.i ]
  %35 = phi ptr [ %.pre.i, %._crit_edge.i ], [ %26, %_ZN6bufferIP3appLb0ELj16EE6expandEv.exit.i ]
  %36 = zext i32 %34 to i64
  %37 = getelementptr inbounds nuw ptr, ptr %35, i64 %36
  store ptr %17, ptr %37, align 8, !tbaa !89
  %38 = add i32 %34, 1
  store i32 %38, ptr %8, align 8, !tbaa !119
  br label %39

39:                                               ; preds = %11, %_ZN6bufferIP3appLb0ELj16EE9push_backERKS1_.exit
  %.1 = phi i1 [ %.012, %_ZN6bufferIP3appLb0ELj16EE9push_backERKS1_.exit ], [ false, %11 ]
  %indvars.iv.next = add nuw nsw i64 %indvars.iv, 1
  %40 = load i32, ptr %5, align 8, !tbaa !688
  %41 = zext i32 %40 to i64
  %42 = icmp samesign ult i64 %indvars.iv.next, %41
  br i1 %42, label %11, label %._crit_edge, !llvm.loop !693
}